; Function Attrs: mustprogress uwtable
define internal fastcc noundef zeroext i1 @"_ZN9__gnu_cxx5__ops15_Iter_comp_iterIZN4cvc58internal6theory18PartitionGenerator15collectLiteralsENS5_15LiteralListTypeEE3$_0EclINS_17__normal_iteratorIPNS3_12NodeTemplateILb1EEESt6vectorISC_SaISC_EEEESH_EEbT_T0_"(ptr nocapture noundef nonnull readonly align 8 dereferenceable(8) %this, ptr nocapture readonly %__it1.coerce, ptr nocapture readonly %__it2.coerce) unnamed_addr #3 align 2 personality ptr @__gxx_personality_v0 {
entry:
  %agg.tmp = alloca %"class.cvc5::internal::NodeTemplate", align 8
  %agg.tmp3 = alloca %"class.cvc5::internal::NodeTemplate", align 8
  %0 = load ptr, ptr %__it1.coerce, align 8
  store ptr %0, ptr %agg.tmp, align 8
  %bf.load.i.i = load i64, ptr %0, align 8
  %bf.lshr.i.i = lshr i64 %bf.load.i.i, 40
  %1 = trunc i64 %bf.lshr.i.i to i32
  %bf.cast.i.i = and i32 %1, 1048575
  %cmp.i.i = icmp ult i32 %bf.cast.i.i, 1048574
  br i1 %cmp.i.i, label %if.then.i.i, label %if.else.i.i

if.then.i.i:                                      ; preds = %entry
  %bf.value.i.i = add i64 %bf.load.i.i, 1099511627776
  %bf.shl.i.i = and i64 %bf.value.i.i, 1152920405095219200
  %bf.clear7.i.i = and i64 %bf.load.i.i, -1152920405095219201
  %bf.set.i.i = or disjoint i64 %bf.shl.i.i, %bf.clear7.i.i
  store i64 %bf.set.i.i, ptr %0, align 8
  br label %_ZN4cvc58internal12NodeTemplateILb1EEC2ERKS2_.exit

if.else.i.i:                                      ; preds = %entry
  %cmp12.i.i = icmp eq i32 %bf.cast.i.i, 1048574
  br i1 %cmp12.i.i, label %if.then13.i.i, label %_ZN4cvc58internal12NodeTemplateILb1EEC2ERKS2_.exit

if.then13.i.i:                                    ; preds = %if.else.i.i
  %bf.set23.i.i = or i64 %bf.load.i.i, 1152920405095219200
  store i64 %bf.set23.i.i, ptr %0, align 8
  tail call void @_ZN4cvc58internal4expr9NodeValue20markRefCountMaxedOutEv(ptr noundef nonnull align 8 dereferenceable(16) %0)
  br label %_ZN4cvc58internal12NodeTemplateILb1EEC2ERKS2_.exit

_ZN4cvc58internal12NodeTemplateILb1EEC2ERKS2_.exit: ; preds = %if.then.i.i, %if.else.i.i, %if.then13.i.i
  %2 = load ptr, ptr %__it2.coerce, align 8
  store ptr %2, ptr %agg.tmp3, align 8
  %bf.load.i.i2 = load i64, ptr %2, align 8
  %bf.lshr.i.i3 = lshr i64 %bf.load.i.i2, 40
  %3 = trunc i64 %bf.lshr.i.i3 to i32
  %bf.cast.i.i4 = and i32 %3, 1048575
  %cmp.i.i5 = icmp ult i32 %bf.cast.i.i4, 1048574
  br i1 %cmp.i.i5, label %if.then.i.i10, label %if.else.i.i6

if.then.i.i10:                                    ; preds = %_ZN4cvc58internal12NodeTemplateILb1EEC2ERKS2_.exit
  %bf.value.i.i11 = add i64 %bf.load.i.i2, 1099511627776
  %bf.shl.i.i12 = and i64 %bf.value.i.i11, 1152920405095219200
  %bf.clear7.i.i13 = and i64 %bf.load.i.i2, -1152920405095219201
  %bf.set.i.i14 = or disjoint i64 %bf.shl.i.i12, %bf.clear7.i.i13
  store i64 %bf.set.i.i14, ptr %2, align 8
  br label %invoke.cont

if.else.i.i6:                                     ; preds = %_ZN4cvc58internal12NodeTemplateILb1EEC2ERKS2_.exit
  %cmp12.i.i7 = icmp eq i32 %bf.cast.i.i4, 1048574
  br i1 %cmp12.i.i7, label %if.then13.i.i8, label %invoke.cont

if.then13.i.i8:                                   ; preds = %if.else.i.i6
  %bf.set23.i.i9 = or i64 %bf.load.i.i2, 1152920405095219200
  store i64 %bf.set23.i.i9, ptr %2, align 8
  invoke void @_ZN4cvc58internal4expr9NodeValue20markRefCountMaxedOutEv(ptr noundef nonnull align 8 dereferenceable(16) %2)
          to label %invoke.cont unwind label %lpad

invoke.cont:                                      ; preds = %if.else.i.i6, %if.then.i.i10, %if.then13.i.i8
  %this.val = load ptr, ptr %this, align 8
  %d_lemmaMap.i = getelementptr inbounds i8, ptr %this.val, i64 304
  %call.i.i16 = invoke noundef nonnull align 8 dereferenceable(8) ptr @_ZNSt8__detail9_Map_baseIN4cvc58internal12NodeTemplateILb1EEESt4pairIKS4_mESaIS7_ENS_10_Select1stESt8equal_toIS4_ESt4hashIS4_ENS_18_Mod_range_hashingENS_20_Default_ranged_hashENS_20_Prime_rehash_policyENS_17_Hashtable_traitsILb1ELb0ELb1EEELb1EEixERS6_(ptr noundef nonnull align 1 dereferenceable(1) %d_lemmaMap.i, ptr noundef nonnull align 8 dereferenceable(8) %agg.tmp)
          to label %call.i.i.noexc unwind label %lpad5

call.i.i.noexc:                                   ; preds = %invoke.cont
  %4 = load i64, ptr %call.i.i16, align 8
  %call.i1.i17 = invoke noundef nonnull align 8 dereferenceable(8) ptr @_ZNSt8__detail9_Map_baseIN4cvc58internal12NodeTemplateILb1EEESt4pairIKS4_mESaIS7_ENS_10_Select1stESt8equal_toIS4_ESt4hashIS4_ENS_18_Mod_range_hashingENS_20_Default_ranged_hashENS_20_Prime_rehash_policyENS_17_Hashtable_traitsILb1ELb0ELb1EEELb1EEixERS6_(ptr noundef nonnull align 1 dereferenceable(1) %d_lemmaMap.i, ptr noundef nonnull align 8 dereferenceable(8) %agg.tmp3)
          to label %invoke.cont6 unwind label %lpad5

invoke.cont6:                                     ; preds = %call.i.i.noexc
  %5 = load i64, ptr %call.i1.i17, align 8
  %6 = load ptr, ptr %agg.tmp3, align 8
  %bf.load.i.i18 = load i64, ptr %6, align 8
  %7 = and i64 %bf.load.i.i18, 1152920405095219200
  %cmp.not.i.i = icmp eq i64 %7, 1152920405095219200
  br i1 %cmp.not.i.i, label %_ZN4cvc58internal12NodeTemplateILb1EED2Ev.exit, label %if.then.i.i19

if.then.i.i19:                                    ; preds = %invoke.cont6
  %bf.value.i.i20 = add i64 %bf.load.i.i18, 1152920405095219200
  %bf.shl.i.i21 = and i64 %bf.value.i.i20, 1152920405095219200
  %bf.clear7.i.i22 = and i64 %bf.load.i.i18, -1152920405095219201
  %bf.set.i.i23 = or disjoint i64 %bf.shl.i.i21, %bf.clear7.i.i22
  store i64 %bf.set.i.i23, ptr %6, align 8
  %cmp12.i.i24 = icmp eq i64 %bf.shl.i.i21, 0
  br i1 %cmp12.i.i24, label %if.then13.i.i25, label %_ZN4cvc58internal12NodeTemplateILb1EED2Ev.exit

if.then13.i.i25:                                  ; preds = %if.then.i.i19
  invoke void @_ZN4cvc58internal4expr9NodeValue15markForDeletionEv(ptr noundef nonnull align 8 dereferenceable(16) %6)
          to label %_ZN4cvc58internal12NodeTemplateILb1EED2Ev.exit unwind label %terminate.lpad.i

terminate.lpad.i:                                 ; preds = %if.then13.i.i25
  %8 = landingpad { ptr, i32 }
          catch ptr null
  %9 = extractvalue { ptr, i32 } %8, 0
  call void @__clang_call_terminate(ptr %9) #21
  unreachable

_ZN4cvc58internal12NodeTemplateILb1EED2Ev.exit:   ; preds = %invoke.cont6, %if.then.i.i19, %if.then13.i.i25
  %10 = load ptr, ptr %agg.tmp, align 8
  %bf.load.i.i26 = load i64, ptr %10, align 8
  %11 = and i64 %bf.load.i.i26, 1152920405095219200
  %cmp.not.i.i27 = icmp eq i64 %11, 1152920405095219200
  br i1 %cmp.not.i.i27, label %_ZN4cvc58internal12NodeTemplateILb1EED2Ev.exit36, label %if.then.i.i28

if.then.i.i28:                                    ; preds = %_ZN4cvc58internal12NodeTemplateILb1EED2Ev.exit
  %bf.value.i.i29 = add i64 %bf.load.i.i26, 1152920405095219200
  %bf.shl.i.i30 = and i64 %bf.value.i.i29, 1152920405095219200
  %bf.clear7.i.i31 = and i64 %bf.load.i.i26, -1152920405095219201
  %bf.set.i.i32 = or disjoint i64 %bf.shl.i.i30, %bf.clear7.i.i31
  store i64 %bf.set.i.i32, ptr %10, align 8
  %cmp12.i.i33 = icmp eq i64 %bf.shl.i.i30, 0
  br i1 %cmp12.i.i33, label %if.then13.i.i34, label %_ZN4cvc58internal12NodeTemplateILb1EED2Ev.exit36

if.then13.i.i34:                                  ; preds = %if.then.i.i28
  invoke void @_ZN4cvc58internal4expr9NodeValue15markForDeletionEv(ptr noundef nonnull align 8 dereferenceable(16) %10)
          to label %_ZN4cvc58internal12NodeTemplateILb1EED2Ev.exit36 unwind label %terminate.lpad.i35

terminate.lpad.i35:                               ; preds = %if.then13.i.i34
  %12 = landingpad { ptr, i32 }
          catch ptr null
  %13 = extractvalue { ptr, i32 } %12, 0
  call void @__clang_call_terminate(ptr %13) #21
  unreachable

_ZN4cvc58internal12NodeTemplateILb1EED2Ev.exit36: ; preds = %_ZN4cvc58internal12NodeTemplateILb1EED2Ev.exit, %if.then.i.i28, %if.then13.i.i34
  %cmp.i = icmp ugt i64 %4, %5
  ret i1 %cmp.i

lpad:                                             ; preds = %if.then13.i.i8
  %14 = landingpad { ptr, i32 }
          cleanup
  br label %ehcleanup

lpad5:                                            ; preds = %call.i.i.noexc, %invoke.cont
  %15 = landingpad { ptr, i32 }
          cleanup
  call void @_ZN4cvc58internal12NodeTemplateILb1EED2Ev(ptr noundef nonnull align 8 dereferenceable(8) %agg.tmp3) #18
  br label %ehcleanup

ehcleanup:                                        ; preds = %lpad5, %lpad
  %.pn = phi { ptr, i32 } [ %15, %lpad5 ], [ %14, %lpad ]
  call void @_ZN4cvc58internal12NodeTemplateILb1EED2Ev(ptr noundef nonnull align 8 dereferenceable(8) %agg.tmp) #18
  resume { ptr, i32 } %.pn
}